copenalea.oalab.control.picklable_curves
RedBezierNurbs2D
p1
(copenalea.plantgl.scenegraph._pglsg
Point3Array
p2
((lp3
copenalea.plantgl.math._pglmath
Vector3
p4
(F-0.5
F0
F1
tRp5
ag4
(F-0.088221654295921326
F0.58008462190628052
F1
tRp6
ag4
(F0.15315316617488861
F-0.41891887784004211
F1
tRp7
ag4
(F0.5
F0
F1
tRp8
atRp9
S'Curve2D'
p10
tRp11
.