(lp1
copenalea.plantgl.scenegraph._pglsg
Material
p2
(S'Color_0'
copenalea.plantgl.scenegraph._pglsg
Color3
p3
(I80
I80
I80
tRp4
F2
g3
(I40
I40
I40
tRp5
g3
(I0
I0
I0
tRp6
F1
F0
tRp7
ag2
(S'Color_1'
g3
(I65
I45
I15
tRp8
F3
g3
(I40
I40
I40
tRp9
g3
(I0
I0
I0
tRp10
F1
F0
tRp11
ag2
(S'Color_2'
g3
(I30
I60
I10
tRp12
F3
g3
(I40
I40
I40
tRp13
g3
(I0
I0
I0
tRp14
F1
F0
tRp15
ag2
(S'Color_3'
g3
(I60
I0
I0
tRp16
F3
g3
(I40
I40
I40
tRp17
g3
(I0
I0
I0
tRp18
F1
F0
tRp19
ag2
(S'Color_4'
g3
(I60
I60
I15
tRp20
F3
g3
(I40
I40
I40
tRp21
g3
(I0
I0
I0
tRp22
F1
F0
tRp23
ag2
(S'Color_5'
g3
(I0
I0
I60
tRp24
F3
g3
(I40
I40
I40
tRp25
g3
(I0
I0
I0
tRp26
F1
F0
tRp27
ag2
(S'Color_6'
g3
(I60
I0
I60
tRp28
F3
g3
(I40
I40
I40
tRp29
g3
(I0
I0
I0
tRp30
F1
F0
tRp31
a.