copenalea.plantgl.scenegraph._pglsg
NurbsCurve2D
p1
(copenalea.plantgl.scenegraph._pglsg
Point3Array
p2
((lp3
copenalea.plantgl.math._pglmath
Vector3
p4
(F0
F0
F1
tRp5
ag4
(F0.26576581597328186
F0.3423423171043396
F1
tRp6
ag4
(F0.73873871564865112
F0.36036026477813721
F1
tRp7
ag4
(F1
F0
F1
tRp8
atRp9
tRp10
.