copenalea.plantgl.scenegraph._pglsg
BezierCurve2D
p1
(copenalea.plantgl.scenegraph._pglsg
Point3Array
p2
((lp3
copenalea.plantgl.math._pglmath
Vector3
p4
(F-0.48648649454116821
F0.17117114365100861
F1
tRp5
ag4
(F-0.013513531535863876
F-0.30180174112319946
F1
tRp6
ag4
(F-0.033783778548240662
F0.49099099636077881
F1
tRp7
ag4
(F0.063063070178031921
F-0.30180177092552185
F1
tRp8
ag4
(F0.52252250909805298
F0.15765765309333801
F1
tRp9
atRp10
tRp11
.