(lp1
copenalea.plantgl.scenegraph._pglsg
Material
p2
(S'Color_0'
copenalea.plantgl.scenegraph._pglsg
Color3
p3
(I80
I80
I80
tRp4
F2
g3
(I40
I40
I40
tRp5
g3
(I0
I0
I0
tRp6
F1
F0
tRp7
ag2
(S'Color_1'
g3
(I65
I45
I15
tRp8
F3
g3
(I40
I40
I40
tRp9
g3
(I0
I0
I0
tRp10
F1
F0
tRp11
ag2
(S'Color_2'
g3
(I30
I60
I10
tRp12
F3
g3
(I40
I40
I40
tRp13
g3
(I0
I0
I0
tRp14
F1
F0
tRp15
ag2
(S'Color_3'
g3
(I60
I0
I0
tRp16
F3
g3
(I40
I40
I40
tRp17
g3
(I0
I0
I0
tRp18
F1
F0
tRp19
ag2
(S'Color_4'
g3
(I60
I60
I15
tRp20
F3
g3
(I40
I40
I40
tRp21
g3
(I0
I0
I0
tRp22
F1
F0
tRp23
ag2
(S'Color_5'
g3
(I0
I0
I60
tRp24
F3
g3
(I40
I40
I40
tRp25
g3
(I0
I0
I0
tRp26
F1
F0
tRp27
ag2
(S'Color_6'
g3
(I60
I0
I60
tRp28
F3
g3
(I40
I40
I40
tRp29
g3
(I0
I0
I0
tRp30
F1
F0
tRp31
ag2
(S'Color_7'
g3
(I80
I80
I80
tRp32
F2
g3
(I40
I40
I40
tRp33
g3
(I0
I0
I0
tRp34
F1
F0
tRp35
ag2
(S'Color_8'
g3
(I80
I80
I80
tRp36
F2
g3
(I40
I40
I40
tRp37
g3
(I0
I0
I0
tRp38
F1
F0
tRp39
ag2
(S'Color_9'
g3
(I80
I80
I80
tRp40
F2
g3
(I40
I40
I40
tRp41
g3
(I0
I0
I0
tRp42
F1
F0
tRp43
ag2
(S'Color_10'
g3
(I80
I80
I80
tRp44
F2
g3
(I40
I40
I40
tRp45
g3
(I0
I0
I0
tRp46
F1
F0
tRp47
ag2
(S'Color_11'
g3
(I80
I80
I80
tRp48
F2
g3
(I40
I40
I40
tRp49
g3
(I0
I0
I0
tRp50
F1
F0
tRp51
ag2
(S'Color_12'
g3
(I80
I80
I80
tRp52
F2
g3
(I40
I40
I40
tRp53
g3
(I0
I0
I0
tRp54
F1
F0
tRp55
ag2
(S'Color_13'
g3
(I80
I80
I80
tRp56
F2
g3
(I40
I40
I40
tRp57
g3
(I0
I0
I0
tRp58
F1
F0
tRp59
ag2
(S'Color_14'
g3
(I80
I80
I80
tRp60
F2
g3
(I40
I40
I40
tRp61
g3
(I0
I0
I0
tRp62
F1
F0
tRp63
ag2
(S'Color_15'
g3
(I80
I80
I80
tRp64
F2
g3
(I40
I40
I40
tRp65
g3
(I0
I0
I0
tRp66
F1
F0
tRp67
ag2
(S'Color_16'
g3
(I80
I80
I80
tRp68
F2
g3
(I40
I40
I40
tRp69
g3
(I0
I0
I0
tRp70
F1
F0
tRp71
ag2
(S'Color_17'
g3
(I80
I80
I80
tRp72
F2
g3
(I40
I40
I40
tRp73
g3
(I0
I0
I0
tRp74
F1
F0
tRp75
ag2
(S'Color_18'
g3
(I80
I80
I80
tRp76
F2
g3
(I40
I40
I40
tRp77
g3
(I0
I0
I0
tRp78
F1
F0
tRp79
ag2
(S'Color_19'
g3
(I80
I80
I80
tRp80
F2
g3
(I40
I40
I40
tRp81
g3
(I0
I0
I0
tRp82
F1
F0
tRp83
ag2
(S'Color_20'
g3
(I80
I80
I80
tRp84
F2
g3
(I40
I40
I40
tRp85
g3
(I0
I0
I0
tRp86
F1
F0
tRp87
ag2
(S'Color_21'
g3
(I80
I80
I80
tRp88
F2
g3
(I40
I40
I40
tRp89
g3
(I0
I0
I0
tRp90
F1
F0
tRp91
ag2
(S'Color_22'
g3
(I80
I80
I80
tRp92
F2
g3
(I40
I40
I40
tRp93
g3
(I0
I0
I0
tRp94
F1
F0
tRp95
ag2
(S'Color_23'
g3
(I80
I80
I80
tRp96
F2
g3
(I40
I40
I40
tRp97
g3
(I0
I0
I0
tRp98
F1
F0
tRp99
ag2
(S'Color_24'
g3
(I80
I80
I80
tRp100
F2
g3
(I40
I40
I40
tRp101
g3
(I0
I0
I0
tRp102
F1
F0
tRp103
ag2
(S'Color_25'
g3
(I80
I80
I80
tRp104
F2
g3
(I40
I40
I40
tRp105
g3
(I0
I0
I0
tRp106
F1
F0
tRp107
ag2
(S'Color_26'
g3
(I80
I80
I80
tRp108
F2
g3
(I40
I40
I40
tRp109
g3
(I0
I0
I0
tRp110
F1
F0
tRp111
ag2
(S'Color_27'
g3
(I80
I80
I80
tRp112
F2
g3
(I40
I40
I40
tRp113
g3
(I0
I0
I0
tRp114
F1
F0
tRp115
ag2
(S'Color_28'
g3
(I80
I80
I80
tRp116
F2
g3
(I40
I40
I40
tRp117
g3
(I0
I0
I0
tRp118
F1
F0
tRp119
ag2
(S'Color_29'
g3
(I80
I80
I80
tRp120
F2
g3
(I40
I40
I40
tRp121
g3
(I0
I0
I0
tRp122
F1
F0
tRp123
ag2
(S'Color_30'
g3
(I80
I80
I80
tRp124
F2
g3
(I40
I40
I40
tRp125
g3
(I0
I0
I0
tRp126
F1
F0
tRp127
ag2
(S'Color_31'
g3
(I80
I80
I80
tRp128
F2
g3
(I40
I40
I40
tRp129
g3
(I0
I0
I0
tRp130
F1
F0
tRp131
ag2
(S'Color_32'
g3
(I80
I80
I80
tRp132
F2
g3
(I40
I40
I40
tRp133
g3
(I0
I0
I0
tRp134
F1
F0
tRp135
ag2
(S'Color_33'
g3
(I80
I80
I80
tRp136
F2
g3
(I40
I40
I40
tRp137
g3
(I0
I0
I0
tRp138
F1
F0
tRp139
ag2
(S'Color_34'
g3
(I80
I80
I80
tRp140
F2
g3
(I40
I40
I40
tRp141
g3
(I0
I0
I0
tRp142
F1
F0
tRp143
ag2
(S'Color_35'
g3
(I80
I80
I80
tRp144
F2
g3
(I40
I40
I40
tRp145
g3
(I0
I0
I0
tRp146
F1
F0
tRp147
ag2
(S'Color_36'
g3
(I80
I80
I80
tRp148
F2
g3
(I40
I40
I40
tRp149
g3
(I0
I0
I0
tRp150
F1
F0
tRp151
ag2
(S'Color_37'
g3
(I80
I80
I80
tRp152
F2
g3
(I40
I40
I40
tRp153
g3
(I0
I0
I0
tRp154
F1
F0
tRp155
ag2
(S'Color_38'
g3
(I80
I80
I80
tRp156
F2
g3
(I40
I40
I40
tRp157
g3
(I0
I0
I0
tRp158
F1
F0
tRp159
ag2
(S'Color_39'
g3
(I80
I80
I80
tRp160
F2
g3
(I40
I40
I40
tRp161
g3
(I0
I0
I0
tRp162
F1
F0
tRp163
ag2
(S'Color_40'
g3
(I80
I80
I80
tRp164
F2
g3
(I40
I40
I40
tRp165
g3
(I0
I0
I0
tRp166
F1
F0
tRp167
ag2
(S'Color_41'
g3
(I80
I80
I80
tRp168
F2
g3
(I40
I40
I40
tRp169
g3
(I0
I0
I0
tRp170
F1
F0
tRp171
ag2
(S'Color_42'
g3
(I80
I80
I80
tRp172
F2
g3
(I40
I40
I40
tRp173
g3
(I0
I0
I0
tRp174
F1
F0
tRp175
ag2
(S'Color_43'
g3
(I80
I80
I80
tRp176
F2
g3
(I40
I40
I40
tRp177
g3
(I0
I0
I0
tRp178
F1
F0
tRp179
ag2
(S'Color_44'
g3
(I80
I80
I80
tRp180
F2
g3
(I40
I40
I40
tRp181
g3
(I0
I0
I0
tRp182
F1
F0
tRp183
ag2
(S'Color_45'
g3
(I80
I80
I80
tRp184
F2
g3
(I40
I40
I40
tRp185
g3
(I0
I0
I0
tRp186
F1
F0
tRp187
ag2
(S'Color_46'
g3
(I80
I80
I80
tRp188
F2
g3
(I40
I40
I40
tRp189
g3
(I0
I0
I0
tRp190
F1
F0
tRp191
a.