copenalea.oalab.control.picklable_curves
RedNurbs2D
p1
(copenalea.plantgl.scenegraph._pglsg
Point3Array
p2
((lp3
copenalea.plantgl.math._pglmath
Vector3
p4
(F-0.5
F0
F1
tRp5
ag4
(F-0.16666666666666669
F0
F1
tRp6
ag4
(F0.16666666666666663
F0
F1
tRp7
ag4
(F0.5
F-0.058558549731969833
F1
tRp8
atRp9
tRp10
.