copenalea.oalab.control.picklable_curves
RedNurbs2D
p1
(copenalea.plantgl.scenegraph._pglsg
Point3Array
p2
((lp3
copenalea.plantgl.math._pglmath
Vector3
p4
(F-0.5
F0
F1
tRp5
ag4
(F0.018334377557039261
F-0.0045122210867702961
F1
tRp6
ag4
(F0.33813107013702393
F-0.018048884347081184
F1
tRp7
ag4
(F0.48646330833435059
F-0.23904737830162048
F1
tRp8
atRp9
tRp10
.