copenalea.plantgl.scenegraph._pglsg
NurbsCurve2D
p1
(copenalea.plantgl.scenegraph._pglsg
Point3Array
p2
((lp3
copenalea.plantgl.math._pglmath
Vector3
p4
(F-0.5
F0
F1
tRp5
ag4
(F2.5095860958099365
F0.073780357837677002
F1
tRp6
ag4
(F-0.78724092245101929
F-0.60381209850311279
F1
tRp7
ag4
(F0.29456394910812378
F-0.16038736701011658
F1
tRp8
atRp9
tRp10
.