copenalea.plantgl.scenegraph._pglsg
NurbsCurve2D
p1
(copenalea.plantgl.scenegraph._pglsg
Point3Array
p2
((lp3
copenalea.plantgl.math._pglmath
Vector3
p4
(F-0.5
F0
F1
tRp5
ag4
(F0.36758595705032349
F-0.06087971106171608
F1
tRp6
ag4
(F0.48951235413551331
F-0.33305960893630981
F1
tRp7
ag4
(F-0.115023173391819
F-0.37080484628677368
F1
tRp8
atRp9
tRp10
.