copenalea.plantgl.scenegraph._pglsg
NurbsCurve2D
p1
(copenalea.plantgl.scenegraph._pglsg
Point3Array
p2
((lp3
copenalea.plantgl.math._pglmath
Vector3
p4
(F-0.5
F0
F1
tRp5
ag4
(F0.18750342726707458
F-0.018228627741336823
F1
tRp6
ag4
(F0.47529506683349609
F-0.086630918085575104
F1
tRp7
ag4
(F0.21670752763748169
F-0.39449992775917053
F1
tRp8
atRp9
tRp10
.